target datalayout = "e-m:e-p270:32:32-p271:32:32-p272:64:64-i64:64-i128:128-f80:128-n8:16:32:64-S128"
target triple = "x86_64-pc-linux-gnu"

%struct.quic_tserver_args_st = type { ptr, ptr, ptr, ptr, ptr, ptr, ptr, ptr, i64 }
%struct.quic_tserver_st = type { %struct.quic_tserver_args_st, ptr, ptr, ptr, ptr, ptr, ptr, ptr, i8 }
%struct.OSSL_TIME = type { i64 }
%struct.quic_stream_st = type { %struct.quic_stream_list_node_st, %struct.quic_stream_list_node_st, %struct.quic_stream_list_node_st, ptr, i64, i64, i64, i64, i64, i64, i64, ptr, ptr, %struct.quic_txfc_st, %struct.quic_rxfc_st, i64 }
%struct.quic_stream_list_node_st = type { ptr, ptr }
%struct.quic_txfc_st = type { ptr, i64, i64, i8 }
%struct.quic_rxfc_st = type { i64, i64, i64, i64, i64, i64, i64, %struct.OSSL_TIME, ptr, ptr, ptr, i8, i8, i8, i8 }

; Function Attrs: nounwind uwtable
define i32 @ossl_quic_tserver_stream_has_peer_stop_sending(ptr noundef %0, i64 noundef %1, ptr noundef %2) #0 {
  %4 = alloca i32, align 4
  %5 = alloca ptr, align 8
  %6 = alloca i64, align 8
  %7 = alloca ptr, align 8
  %8 = alloca ptr, align 8
  %9 = alloca i32, align 4
  store ptr %0, ptr %5, align 8, !tbaa !10
  store i64 %1, ptr %6, align 8, !tbaa !26
  store ptr %2, ptr %7, align 8, !tbaa !78
  call void @llvm.lifetime.start.p0(i64 8, ptr %8) #6
  %10 = load ptr, ptr %5, align 8, !tbaa !10
  %11 = getelementptr inbounds nuw %struct.quic_tserver_st, ptr %10, i32 0, i32 4
  %12 = load ptr, ptr %11, align 8, !tbaa !52
  %13 = call ptr @ossl_quic_channel_get_qsm(ptr noundef %12)
  %14 = load i64, ptr %6, align 8, !tbaa !26
  %15 = call ptr @ossl_quic_stream_map_get_by_id(ptr noundef %13, i64 noundef %14)
  store ptr %15, ptr %8, align 8, !tbaa !80
  %16 = load ptr, ptr %8, align 8, !tbaa !80
  %17 = icmp eq ptr %16, null
  br i1 %17, label %18, label %19

18:                                               ; preds = %3
  store i32 0, ptr %4, align 4
  store i32 1, ptr %9, align 4
  br label %42

19:                                               ; preds = %3
  %20 = load ptr, ptr %8, align 8, !tbaa !80
  %21 = getelementptr inbounds nuw %struct.quic_stream_st, ptr %20, i32 0, i32 15
  %22 = load i64, ptr %21, align 8
  %23 = lshr i64 %22, 27
  %24 = and i64 %23, 1
  %25 = trunc i64 %24 to i32
  %26 = icmp ne i32 %25, 0
  br i1 %26, label %27, label %35

27:                                               ; preds = %19
  %28 = load ptr, ptr %7, align 8, !tbaa !78
  %29 = icmp ne ptr %28, null
  br i1 %29, label %30, label %35

30:                                               ; preds = %27
  %31 = load ptr, ptr %8, align 8, !tbaa !80
  %32 = getelementptr inbounds nuw %struct.quic_stream_st, ptr %31, i32 0, i32 7
  %33 = load i64, ptr %32, align 8, !tbaa !95
  %34 = load ptr, ptr %7, align 8, !tbaa !78
  store i64 %33, ptr %34, align 8, !tbaa !26
  br label %35

35:                                               ; preds = %30, %27, %19
  %36 = load ptr, ptr %8, align 8, !tbaa !80
  %37 = getelementptr inbounds nuw %struct.quic_stream_st, ptr %36, i32 0, i32 15
  %38 = load i64, ptr %37, align 8
  %39 = lshr i64 %38, 27
  %40 = and i64 %39, 1
  %41 = trunc i64 %40 to i32
  store i32 %41, ptr %4, align 4
  store i32 1, ptr %9, align 4
  br label %42

42:                                               ; preds = %35, %18
  call void @llvm.lifetime.end.p0(i64 8, ptr %8) #6
  %43 = load i32, ptr %4, align 4
  ret i32 %43
}