; Function Attrs: nounwind uwtable
define range(i32 0, 2) i32 @ossl_quic_tserver_stream_has_peer_stop_sending(ptr noundef readonly captures(none) %0, i64 noundef %1, ptr noundef writeonly captures(address_is_null) %2) local_unnamed_addr #0 {
  %4 = getelementptr inbounds nuw i8, ptr %0, i64 96
  %5 = load ptr, ptr %4, align 8, !tbaa !46
  %6 = tail call ptr @ossl_quic_channel_get_qsm(ptr noundef %5) #6
  %7 = tail call ptr @ossl_quic_stream_map_get_by_id(ptr noundef %6, i64 noundef %1) #6
  %8 = icmp eq ptr %7, null
  br i1 %8, label %23, label %9

9:                                                ; preds = %3
  %10 = getelementptr inbounds nuw i8, ptr %7, i64 256
  %11 = load i64, ptr %10, align 8
  %12 = and i64 %11, 134217728
  %13 = icmp ne i64 %12, 0
  %14 = icmp ne ptr %2, null
  %or.cond = and i1 %14, %13
  br i1 %or.cond, label %15, label %18

15:                                               ; preds = %9
  %16 = getelementptr inbounds nuw i8, ptr %7, i64 80
  %17 = load i64, ptr %16, align 8, !tbaa !83
  store i64 %17, ptr %2, align 8, !tbaa !20
  %.pre = load i64, ptr %10, align 8
  br label %18

18:                                               ; preds = %15, %9
  %19 = phi i64 [ %.pre, %15 ], [ %11, %9 ]
  %20 = trunc i64 %19 to i32
  %21 = lshr i32 %20, 27
  %22 = and i32 %21, 1
  br label %23

23:                                               ; preds = %3, %18
  %.0 = phi i32 [ %22, %18 ], [ 0, %3 ]
  ret i32 %.0
}